; Function Attrs: mustprogress nofree norecurse nosync nounwind willreturn memory(readwrite, inaccessiblemem: none) uwtable
define internal range(i32 -1094995529, 1) i32 @dxv_decompress_raw(ptr noundef readonly captures(none) %0) unnamed_addr #5 {
  %2 = getelementptr inbounds nuw i8, ptr %0, i64 32
  %3 = load ptr, ptr %2, align 8, !tbaa !4
  %4 = getelementptr inbounds nuw i8, ptr %3, i64 120
  %5 = getelementptr inbounds nuw i8, ptr %3, i64 128
  %6 = load ptr, ptr %5, align 8, !tbaa !36
  %7 = load ptr, ptr %4, align 8, !tbaa !39
  %8 = ptrtoint ptr %6 to i64
  %9 = ptrtoint ptr %7 to i64
  %10 = sub i64 %8, %9
  %sext = shl i64 %10, 32
  %11 = ashr exact i64 %sext, 32
  %12 = getelementptr inbounds nuw i8, ptr %3, i64 160
  %13 = load i64, ptr %12, align 8, !tbaa !53
  %14 = icmp sgt i64 %13, %11
  br i1 %14, label %23, label %15

15:                                               ; preds = %1
  %16 = getelementptr inbounds nuw i8, ptr %3, i64 144
  %17 = load ptr, ptr %16, align 8, !tbaa !60
  %18 = and i64 %13, 4294967295
  %19 = icmp sgt i64 %10, %18
  %.v = select i1 %19, i64 %13, i64 %10
  %20 = and i64 %.v, 4294967295
  tail call void @llvm.memcpy.p0.p0.i64(ptr align 1 %17, ptr align 1 %7, i64 %20, i1 false)
  %21 = load ptr, ptr %4, align 8, !tbaa !39
  %22 = getelementptr inbounds nuw i8, ptr %21, i64 %20
  store ptr %22, ptr %4, align 8, !tbaa !39
  br label %23

23:                                               ; preds = %1, %15
  %.0 = phi i32 [ 0, %15 ], [ -1094995529, %1 ]
  ret i32 %.0
}